; Function Attrs: nounwind sspstrong uwtable
define dso_local ptr @block_job_get_aio_context(ptr noundef readonly captures(none) %0) local_unnamed_addr #0 {
  %2 = tail call zeroext i1 @qemu_in_main_thread() #8
  br i1 %2, label %4, label %3

3:                                                ; preds = %1
  tail call void @__assert_fail(ptr noundef nonnull @.str, ptr noundef nonnull @.str.1, i32 noundef 626, ptr noundef nonnull @__PRETTY_FUNCTION__.block_job_get_aio_context) #9
  unreachable

4:                                                ; preds = %1
  %5 = getelementptr inbounds nuw i8, ptr %0, i64 112
  %6 = load ptr, ptr %5, align 8
  ret ptr %6
}